target datalayout = "e-m:e-p270:32:32-p271:32:32-p272:64:64-i64:64-i128:128-f80:128-n8:16:32:64-S128"
target triple = "x86_64-pc-linux-gnu"

%struct.AVFormatContext = type { ptr, ptr, ptr, ptr, ptr, i32, i32, ptr, i32, ptr, i32, ptr, ptr, i64, i64, i64, i32, i32, i32, i64, i64, ptr, i32, i32, ptr, i32, i32, i32, i32, ptr, i64, i32, i32, %struct.AVIOInterruptCB, i32, i32, i32, i32, i64, i32, i32, i32, i32, i32, i32, i32, i32, i32, i32, i32, i32, i64, i32, i32, i32, i32, i32, ptr, ptr, ptr, ptr, i32, ptr, ptr, ptr, ptr, i32, ptr, ptr, i64, ptr, ptr, ptr, i64 }
%struct.AVIOInterruptCB = type { ptr, ptr }
%struct.SegmentContext = type { ptr, i32, i32, i32, i32, ptr, ptr, ptr, ptr, ptr, i32, i32, i32, i32, i64, i64, i64, i32, i32, ptr, i32, ptr, i64, i64, i32, i32, ptr, ptr, i32, ptr, ptr, i32, i32, i32, i64, i32, i32, ptr, i32, i64, ptr, i32, i64, i32, i32, i32, [1024 x i8], %struct.SegmentListEntry, ptr, ptr }
%struct.SegmentListEntry = type { i32, double, double, i64, i64, ptr, ptr, i64 }

@.str.92 = private unnamed_addr constant [7 x i8] c"%s.tmp\00", align 1
@.str.93 = private unnamed_addr constant [3 x i8] c"%s\00", align 1
@.str.94 = private unnamed_addr constant [34 x i8] c"Failed to open segment list '%s'\0A\00", align 1
@.str.95 = private unnamed_addr constant [9 x i8] c"#EXTM3U\0A\00", align 1
@.str.96 = private unnamed_addr constant [18 x i8] c"#EXT-X-VERSION:3\0A\00", align 1
@.str.97 = private unnamed_addr constant [26 x i8] c"#EXT-X-MEDIA-SEQUENCE:%d\0A\00", align 1
@.str.98 = private unnamed_addr constant [23 x i8] c"#EXT-X-ALLOW-CACHE:%s\0A\00", align 1
@.str.99 = private unnamed_addr constant [4 x i8] c"YES\00", align 1
@.str.100 = private unnamed_addr constant [3 x i8] c"NO\00", align 1
@.str.101 = private unnamed_addr constant [25 x i8] c"EXT-X-MEDIA-SEQUENCE:%d\0A\00", align 1
@.str.102 = private unnamed_addr constant [27 x i8] c"#EXT-X-TARGETDURATION:%ld\0A\00", align 1
@.str.103 = private unnamed_addr constant [22 x i8] c"ffconcat version 1.0\0A\00", align 1

; Function Attrs: nounwind uwtable
define internal i32 @segment_list_open(ptr noundef %0) #0 {
  %2 = alloca i32, align 4
  %3 = alloca ptr, align 8
  %4 = alloca ptr, align 8
  %5 = alloca i32, align 4
  %6 = alloca i32, align 4
  %7 = alloca ptr, align 8
  %8 = alloca double, align 8
  store ptr %0, ptr %3, align 8, !tbaa !4
  call void @llvm.lifetime.start.p0(i64 8, ptr %4) #12
  %9 = load ptr, ptr %3, align 8, !tbaa !4
  %10 = getelementptr inbounds nuw %struct.AVFormatContext, ptr %9, i32 0, i32 3
  %11 = load ptr, ptr %10, align 8, !tbaa !9
  store ptr %11, ptr %4, align 8, !tbaa !26
  call void @llvm.lifetime.start.p0(i64 4, ptr %5) #12
  %12 = load ptr, ptr %4, align 8, !tbaa !26
  %13 = getelementptr inbounds nuw %struct.SegmentContext, ptr %12, i32 0, i32 46
  %14 = getelementptr inbounds [1024 x i8], ptr %13, i64 0, i64 0
  %15 = load ptr, ptr %4, align 8, !tbaa !26
  %16 = getelementptr inbounds nuw %struct.SegmentContext, ptr %15, i32 0, i32 45
  %17 = load i32, ptr %16, align 8, !tbaa !116
  %18 = icmp ne i32 %17, 0
  %19 = select i1 %18, ptr @.str.92, ptr @.str.93
  %20 = load ptr, ptr %4, align 8, !tbaa !26
  %21 = getelementptr inbounds nuw %struct.SegmentContext, ptr %20, i32 0, i32 9
  %22 = load ptr, ptr %21, align 8, !tbaa !113
  %23 = call i32 (ptr, i64, ptr, ...) @snprintf(ptr noundef %14, i64 noundef 1024, ptr noundef %19, ptr noundef %22) #12
  %24 = load ptr, ptr %3, align 8, !tbaa !4
  %25 = getelementptr inbounds nuw %struct.AVFormatContext, ptr %24, i32 0, i32 71
  %26 = load ptr, ptr %25, align 8, !tbaa !40
  %27 = load ptr, ptr %3, align 8, !tbaa !4
  %28 = load ptr, ptr %4, align 8, !tbaa !26
  %29 = getelementptr inbounds nuw %struct.SegmentContext, ptr %28, i32 0, i32 21
  %30 = load ptr, ptr %4, align 8, !tbaa !26
  %31 = getelementptr inbounds nuw %struct.SegmentContext, ptr %30, i32 0, i32 46
  %32 = getelementptr inbounds [1024 x i8], ptr %31, i64 0, i64 0
  %33 = call i32 %26(ptr noundef %27, ptr noundef %29, ptr noundef %32, i32 noundef 2, ptr noundef null)
  store i32 %33, ptr %5, align 4, !tbaa !36
  %34 = load i32, ptr %5, align 4, !tbaa !36
  %35 = icmp slt i32 %34, 0
  br i1 %35, label %36, label %42

36:                                               ; preds = %1
  %37 = load ptr, ptr %3, align 8, !tbaa !4
  %38 = load ptr, ptr %4, align 8, !tbaa !26
  %39 = getelementptr inbounds nuw %struct.SegmentContext, ptr %38, i32 0, i32 9
  %40 = load ptr, ptr %39, align 8, !tbaa !113
  call void (ptr, i32, ptr, ...) @av_log(ptr noundef %37, i32 noundef 16, ptr noundef @.str.94, ptr noundef %40)
  %41 = load i32, ptr %5, align 4, !tbaa !36
  store i32 %41, ptr %2, align 4
  store i32 1, ptr %6, align 4
  br label %139

42:                                               ; preds = %1
  %43 = load ptr, ptr %4, align 8, !tbaa !26
  %44 = getelementptr inbounds nuw %struct.SegmentContext, ptr %43, i32 0, i32 20
  %45 = load i32, ptr %44, align 8, !tbaa !114
  %46 = icmp eq i32 %45, 2
  br i1 %46, label %47, label %126

47:                                               ; preds = %42
  %48 = load ptr, ptr %4, align 8, !tbaa !26
  %49 = getelementptr inbounds nuw %struct.SegmentContext, ptr %48, i32 0, i32 48
  %50 = load ptr, ptr %49, align 8, !tbaa !130
  %51 = icmp ne ptr %50, null
  br i1 %51, label %52, label %126

52:                                               ; preds = %47
  call void @llvm.lifetime.start.p0(i64 8, ptr %7) #12
  call void @llvm.lifetime.start.p0(i64 8, ptr %8) #12
  store double 0.000000e+00, ptr %8, align 8, !tbaa !172
  %53 = load ptr, ptr %4, align 8, !tbaa !26
  %54 = getelementptr inbounds nuw %struct.SegmentContext, ptr %53, i32 0, i32 21
  %55 = load ptr, ptr %54, align 8, !tbaa !154
  %56 = call i32 (ptr, ptr, ...) @avio_printf(ptr noundef %55, ptr noundef @.str.95)
  %57 = load ptr, ptr %4, align 8, !tbaa !26
  %58 = getelementptr inbounds nuw %struct.SegmentContext, ptr %57, i32 0, i32 21
  %59 = load ptr, ptr %58, align 8, !tbaa !154
  %60 = call i32 (ptr, ptr, ...) @avio_printf(ptr noundef %59, ptr noundef @.str.96)
  %61 = load ptr, ptr %4, align 8, !tbaa !26
  %62 = getelementptr inbounds nuw %struct.SegmentContext, ptr %61, i32 0, i32 21
  %63 = load ptr, ptr %62, align 8, !tbaa !154
  %64 = load ptr, ptr %4, align 8, !tbaa !26
  %65 = getelementptr inbounds nuw %struct.SegmentContext, ptr %64, i32 0, i32 48
  %66 = load ptr, ptr %65, align 8, !tbaa !130
  %67 = getelementptr inbounds nuw %struct.SegmentListEntry, ptr %66, i32 0, i32 0
  %68 = load i32, ptr %67, align 8, !tbaa !173
  %69 = call i32 (ptr, ptr, ...) @avio_printf(ptr noundef %63, ptr noundef @.str.97, i32 noundef %68)
  %70 = load ptr, ptr %4, align 8, !tbaa !26
  %71 = getelementptr inbounds nuw %struct.SegmentContext, ptr %70, i32 0, i32 21
  %72 = load ptr, ptr %71, align 8, !tbaa !154
  %73 = load ptr, ptr %4, align 8, !tbaa !26
  %74 = getelementptr inbounds nuw %struct.SegmentContext, ptr %73, i32 0, i32 10
  %75 = load i32, ptr %74, align 8, !tbaa !174
  %76 = and i32 %75, 1
  %77 = icmp ne i32 %76, 0
  %78 = select i1 %77, ptr @.str.99, ptr @.str.100
  %79 = call i32 (ptr, ptr, ...) @avio_printf(ptr noundef %72, ptr noundef @.str.98, ptr noundef %78)
  %80 = load ptr, ptr %3, align 8, !tbaa !4
  %81 = load ptr, ptr %4, align 8, !tbaa !26
  %82 = getelementptr inbounds nuw %struct.SegmentContext, ptr %81, i32 0, i32 48
  %83 = load ptr, ptr %82, align 8, !tbaa !130
  %84 = getelementptr inbounds nuw %struct.SegmentListEntry, ptr %83, i32 0, i32 0
  %85 = load i32, ptr %84, align 8, !tbaa !173
  call void (ptr, i32, ptr, ...) @av_log(ptr noundef %80, i32 noundef 40, ptr noundef @.str.101, i32 noundef %85)
  %86 = load ptr, ptr %4, align 8, !tbaa !26
  %87 = getelementptr inbounds nuw %struct.SegmentContext, ptr %86, i32 0, i32 48
  %88 = load ptr, ptr %87, align 8, !tbaa !130
  store ptr %88, ptr %7, align 8, !tbaa !131
  br label %89

89:                                               ; preds = %114, %52
  %90 = load ptr, ptr %7, align 8, !tbaa !131
  %91 = icmp ne ptr %90, null
  br i1 %91, label %92, label %118

92:                                               ; preds = %89
  %93 = load double, ptr %8, align 8, !tbaa !172
  %94 = load ptr, ptr %7, align 8, !tbaa !131
  %95 = getelementptr inbounds nuw %struct.SegmentListEntry, ptr %94, i32 0, i32 2
  %96 = load double, ptr %95, align 8, !tbaa !175
  %97 = load ptr, ptr %7, align 8, !tbaa !131
  %98 = getelementptr inbounds nuw %struct.SegmentListEntry, ptr %97, i32 0, i32 1
  %99 = load double, ptr %98, align 8, !tbaa !176
  %100 = fsub nsz double %96, %99
  %101 = fcmp nsz ogt double %93, %100
  br i1 %101, label %102, label %104

102:                                              ; preds = %92
  %103 = load double, ptr %8, align 8, !tbaa !172
  br label %112

104:                                              ; preds = %92
  %105 = load ptr, ptr %7, align 8, !tbaa !131
  %106 = getelementptr inbounds nuw %struct.SegmentListEntry, ptr %105, i32 0, i32 2
  %107 = load double, ptr %106, align 8, !tbaa !175
  %108 = load ptr, ptr %7, align 8, !tbaa !131
  %109 = getelementptr inbounds nuw %struct.SegmentListEntry, ptr %108, i32 0, i32 1
  %110 = load double, ptr %109, align 8, !tbaa !176
  %111 = fsub nsz double %107, %110
  br label %112

112:                                              ; preds = %104, %102
  %113 = phi nsz double [ %103, %102 ], [ %111, %104 ]
  store double %113, ptr %8, align 8, !tbaa !172
  br label %114

114:                                              ; preds = %112
  %115 = load ptr, ptr %7, align 8, !tbaa !131
  %116 = getelementptr inbounds nuw %struct.SegmentListEntry, ptr %115, i32 0, i32 6
  %117 = load ptr, ptr %116, align 8, !tbaa !132
  store ptr %117, ptr %7, align 8, !tbaa !131
  br label %89, !llvm.loop !177

118:                                              ; preds = %89
  %119 = load ptr, ptr %4, align 8, !tbaa !26
  %120 = getelementptr inbounds nuw %struct.SegmentContext, ptr %119, i32 0, i32 21
  %121 = load ptr, ptr %120, align 8, !tbaa !154
  %122 = load double, ptr %8, align 8, !tbaa !172
  %123 = call nsz double @llvm.ceil.f64(double %122)
  %124 = fptosi double %123 to i64
  %125 = call i32 (ptr, ptr, ...) @avio_printf(ptr noundef %121, ptr noundef @.str.102, i64 noundef %124)
  call void @llvm.lifetime.end.p0(i64 8, ptr %8) #12
  call void @llvm.lifetime.end.p0(i64 8, ptr %7) #12
  br label %137

126:                                              ; preds = %47, %42
  %127 = load ptr, ptr %4, align 8, !tbaa !26
  %128 = getelementptr inbounds nuw %struct.SegmentContext, ptr %127, i32 0, i32 20
  %129 = load i32, ptr %128, align 8, !tbaa !114
  %130 = icmp eq i32 %129, 4
  br i1 %130, label %131, label %136

131:                                              ; preds = %126
  %132 = load ptr, ptr %4, align 8, !tbaa !26
  %133 = getelementptr inbounds nuw %struct.SegmentContext, ptr %132, i32 0, i32 21
  %134 = load ptr, ptr %133, align 8, !tbaa !154
  %135 = call i32 (ptr, ptr, ...) @avio_printf(ptr noundef %134, ptr noundef @.str.103)
  br label %136

136:                                              ; preds = %131, %126
  br label %137

137:                                              ; preds = %136, %118
  %138 = load i32, ptr %5, align 4, !tbaa !36
  store i32 %138, ptr %2, align 4
  store i32 1, ptr %6, align 4
  br label %139

139:                                              ; preds = %137, %36
  call void @llvm.lifetime.end.p0(i64 4, ptr %5) #12
  call void @llvm.lifetime.end.p0(i64 8, ptr %4) #12
  %140 = load i32, ptr %2, align 4
  ret i32 %140
}