; Function Attrs: nounwind uwtable
define internal fastcc i32 @segment_list_open(ptr noundef %0) unnamed_addr #0 {
  %2 = getelementptr inbounds nuw i8, ptr %0, i64 24
  %3 = load ptr, ptr %2, align 8, !tbaa !4
  %4 = getelementptr inbounds nuw i8, ptr %3, i64 292
  %5 = getelementptr inbounds nuw i8, ptr %3, i64 288
  %6 = load i32, ptr %5, align 8, !tbaa !120
  %.not = icmp eq i32 %6, 0
  %7 = select i1 %.not, ptr @.str.93, ptr @.str.92
  %8 = getelementptr inbounds nuw i8, ptr %3, i64 56
  %9 = load ptr, ptr %8, align 8, !tbaa !117
  %10 = tail call i32 (ptr, i64, ptr, ...) @snprintf(ptr noundef nonnull dereferenceable(1) %4, i64 noundef 1024, ptr noundef nonnull %7, ptr noundef %9) #13
  %11 = getelementptr inbounds nuw i8, ptr %0, i64 448
  %12 = load ptr, ptr %11, align 8, !tbaa !37
  %13 = getelementptr inbounds nuw i8, ptr %3, i64 128
  %14 = tail call i32 %12(ptr noundef %0, ptr noundef nonnull %13, ptr noundef nonnull %4, i32 noundef 2, ptr noundef null) #13
  %15 = icmp slt i32 %14, 0
  br i1 %15, label %16, label %18

16:                                               ; preds = %1
  %17 = load ptr, ptr %8, align 8, !tbaa !117
  tail call void (ptr, i32, ptr, ...) @av_log(ptr noundef nonnull %0, i32 noundef 16, ptr noundef nonnull @.str.94, ptr noundef %17) #13
  br label %.thread

18:                                               ; preds = %1
  %19 = getelementptr inbounds nuw i8, ptr %3, i64 120
  %20 = load i32, ptr %19, align 8, !tbaa !118
  switch i32 %20, label %.thread [
    i32 2, label %21
    i32 4, label %52
  ]

21:                                               ; preds = %18
  %22 = getelementptr inbounds nuw i8, ptr %3, i64 1384
  %23 = load ptr, ptr %22, align 8, !tbaa !137
  %.not39 = icmp eq ptr %23, null
  br i1 %.not39, label %.thread, label %24

24:                                               ; preds = %21
  %25 = load ptr, ptr %13, align 8, !tbaa !156
  %26 = tail call i32 (ptr, ptr, ...) @avio_printf(ptr noundef %25, ptr noundef nonnull @.str.95) #13
  %27 = load ptr, ptr %13, align 8, !tbaa !156
  %28 = tail call i32 (ptr, ptr, ...) @avio_printf(ptr noundef %27, ptr noundef nonnull @.str.96) #13
  %29 = load ptr, ptr %13, align 8, !tbaa !156
  %30 = load ptr, ptr %22, align 8, !tbaa !137
  %31 = load i32, ptr %30, align 8, !tbaa !167
  %32 = tail call i32 (ptr, ptr, ...) @avio_printf(ptr noundef %29, ptr noundef nonnull @.str.97, i32 noundef %31) #13
  %33 = load ptr, ptr %13, align 8, !tbaa !156
  %34 = getelementptr inbounds nuw i8, ptr %3, i64 64
  %35 = load i32, ptr %34, align 8, !tbaa !168
  %36 = and i32 %35, 1
  %.not40 = icmp eq i32 %36, 0
  %37 = select i1 %.not40, ptr @.str.100, ptr @.str.99
  %38 = tail call i32 (ptr, ptr, ...) @avio_printf(ptr noundef %33, ptr noundef nonnull @.str.98, ptr noundef nonnull %37) #13
  %39 = load ptr, ptr %22, align 8, !tbaa !137
  %40 = load i32, ptr %39, align 8, !tbaa !167
  tail call void (ptr, i32, ptr, ...) @av_log(ptr noundef nonnull %0, i32 noundef 40, ptr noundef nonnull @.str.101, i32 noundef %40) #13
  %.03642 = load ptr, ptr %22, align 8, !tbaa !153
  %.not4143 = icmp eq ptr %.03642, null
  br i1 %.not4143, label %._crit_edge, label %.lr.ph

.lr.ph:                                           ; preds = %24, %.lr.ph
  %.03645 = phi ptr [ %.036, %.lr.ph ], [ %.03642, %24 ]
  %.044 = phi double [ %.0., %.lr.ph ], [ 0.000000e+00, %24 ]
  %41 = getelementptr inbounds nuw i8, ptr %.03645, i64 16
  %42 = load double, ptr %41, align 8, !tbaa !169
  %43 = getelementptr inbounds nuw i8, ptr %.03645, i64 8
  %44 = load double, ptr %43, align 8, !tbaa !170
  %45 = fsub nsz double %42, %44
  %46 = fcmp nsz ogt double %.044, %45
  %.0. = select nsz i1 %46, double %.044, double %45
  %47 = getelementptr inbounds nuw i8, ptr %.03645, i64 48
  %.036 = load ptr, ptr %47, align 8, !tbaa !153
  %.not41 = icmp eq ptr %.036, null
  br i1 %.not41, label %._crit_edge, label %.lr.ph, !llvm.loop !171

._crit_edge:                                      ; preds = %.lr.ph, %24
  %.0.lcssa = phi double [ 0.000000e+00, %24 ], [ %.0., %.lr.ph ]
  %48 = load ptr, ptr %13, align 8, !tbaa !156
  %49 = tail call nsz double @llvm.ceil.f64(double %.0.lcssa)
  %50 = fptosi double %49 to i64
  %51 = tail call i32 (ptr, ptr, ...) @avio_printf(ptr noundef %48, ptr noundef nonnull @.str.102, i64 noundef %50) #13
  br label %.thread

52:                                               ; preds = %18
  %53 = load ptr, ptr %13, align 8, !tbaa !156
  %54 = tail call i32 (ptr, ptr, ...) @avio_printf(ptr noundef %53, ptr noundef nonnull @.str.103) #13
  br label %.thread

.thread:                                          ; preds = %18, %21, %._crit_edge, %52, %16
  ret i32 %14
}